; Function Attrs: mustprogress nounwind uwtable
define internal void @_ZN6icu_77L29uprv_deleteListFormatInternalEPv(ptr noundef %0) #0 {
  %2 = icmp eq ptr %0, null
  br i1 %2, label %12, label %3

3:                                                ; preds = %1
  %4 = getelementptr inbounds nuw i8, ptr %0, i64 152
  %.val.i = load ptr, ptr %4, align 8, !tbaa !40
  %5 = icmp eq ptr %.val.i, null
  br i1 %5, label %_ZN6icu_7718ListFormatInternalD2Ev.exit, label %6

6:                                                ; preds = %3
  %7 = load ptr, ptr %.val.i, align 8, !tbaa !15
  %8 = getelementptr inbounds nuw i8, ptr %7, i64 8
  %9 = load ptr, ptr %8, align 8
  tail call void %9(ptr noundef nonnull align 8 dereferenceable(152) %.val.i) #19
  br label %_ZN6icu_7718ListFormatInternalD2Ev.exit

_ZN6icu_7718ListFormatInternalD2Ev.exit:          ; preds = %3, %6
  %10 = getelementptr inbounds nuw i8, ptr %0, i64 80
  tail call void @_ZN6icu_7715SimpleFormatterD1Ev(ptr noundef nonnull align 8 dereferenceable(72) %10) #19
  %11 = getelementptr inbounds nuw i8, ptr %0, i64 8
  tail call void @_ZN6icu_7715SimpleFormatterD1Ev(ptr noundef nonnull align 8 dereferenceable(72) %11) #19
  tail call void @_ZN6icu_777UMemorydlEPv(ptr noundef nonnull %0) #19
  br label %12

12:                                               ; preds = %_ZN6icu_7718ListFormatInternalD2Ev.exit, %1
  ret void
}